Certificate:
    Data:
        Version: 3 (0x2)
        Serial Number: 268435666 (0x100000d2)
    Signature Algorithm: sha256WithRSAEncryption
        Issuer: C=DE, ST=Hessen, O=privacyidea, CN=CA001
        Validity
            Not Before: Apr 16 19:25:12 2018 GMT
            Not After : Apr 16 19:25:12 2019 GMT
        Subject: C=DE, ST=Hessen, O=privacyidea, CN=usercert
        Subject Public Key Info:
            Public Key Algorithm: rsaEncryption
                Public-Key: (2048 bit)
                Modulus:
                    00:dc:2f:d1:5f:29:97:d4:7c:c3:53:c8:30:bd:4b:
                    67:70:2c:24:6b:b8:5e:eb:21:7a:48:12:56:7c:81:
                    5c:48:75:b6:68:eb:f6:f2:98:4e:50:51:d1:7f:6c:
                    73:f3:0a:a7:ae:be:48:5e:e5:d6:e1:d9:2a:7c:32:
                    6e:4e:fd:08:f6:5a:54:49:23:73:c3:b9:07:18:d1:
                    ef:b3:ac:f8:8a:dc:94:96:a4:90:3a:8e:74:df:e6:
                    0d:37:1b:bd:5b:b7:25:1a:56:39:da:6f:91:aa:5e:
                    1c:74:f3:f9:7c:14:01:83:12:65:76:c7:bb:fe:36:
                    5b:95:e9:72:65:83:ed:3e:98:30:71:fa:87:dd:a3:
                    36:5a:30:03:2e:26:e0:61:d1:bf:02:3f:b6:06:1f:
                    4a:89:28:1c:5c:a2:ff:4e:be:94:e6:8c:e0:da:82:
                    f1:9d:29:32:48:30:73:b4:04:f6:42:1e:be:f7:e2:
                    32:32:27:3c:9d:89:2f:70:3e:85:9a:6f:5c:c5:09:
                    c0:8c:32:2f:72:22:c9:d2:95:1f:b6:ac:72:60:72:
                    b7:82:4d:6b:ce:5b:e3:00:d0:d2:2f:58:c6:e0:10:
                    e5:51:ca:4d:3b:2e:e6:7e:ab:84:d6:56:f1:93:35:
                    a0:93:64:26:81:75:2f:91:b5:16:06:38:0b:db:cc:
                    2d:07
                Exponent: 65537 (0x10001)
        X509v3 extensions:
            X509v3 Key Usage: 
                Digital Signature, Key Encipherment
            X509v3 Basic Constraints: 
                CA:FALSE
            Netscape Cert Type: 
                SSL Server
            Netscape Comment: 
                OpenSSL Generated Server Certificate
            X509v3 Subject Key Identifier: 
                FC:14:D1:F0:4B:8D:00:90:F2:F5:B8:71:9E:4E:97:C3:92:54:AD:0B
            X509v3 Authority Key Identifier: 
                keyid:F4:A7:C0:CC:91:46:AF:64:F3:91:F2:27:F8:C8:B2:6F:8A:87:32:73
                DirName:/C=DE/ST=Hessen/O=privacyidea/CN=CA001
                serial:FB:C8:EB:AC:83:CD:12:07

            X509v3 Extended Key Usage: 
                TLS Web Server Authentication
    Signature Algorithm: sha256WithRSAEncryption
         5c:ea:91:e7:33:2e:58:17:77:f9:22:c2:ac:ba:0b:fb:5b:1c:
         69:d7:a2:5e:75:d4:7f:7e:9b:0d:e1:86:32:3f:90:fc:07:6c:
         5c:ac:5b:3d:b4:23:d3:de:cf:d9:e5:79:86:8e:d6:35:b5:db:
         0d:c5:66:f2:d3:e6:66:79:3b:dd:c0:f5:4c:9d:bc:a4:e8:ed:
         1b:70:3f:23:a9:77:c1:f3:e7:5d:49:39:6b:08:0b:8f:85:0a:
         52:23:af:15:96:6d:f0:33:63:3b:f0:4a:64:cd:89:6a:45:dc:
         67:60:fc:dd:4c:96:ad:8b:12:37:0f:1b:32:00:1e:48:5f:d1:
         b0:65:a0:97:86:e4:10:5a:2b:93:34:8e:ac:bc:d5:b6:eb:9a:
         5a:0a:cb:8b:66:a0:49:b8:f1:82:7e:57:52:0a:2a:2b:0d:e4:
         af:ff:b1:40:ff:fc:52:4a:c8:3d:fb:1a:4d:53:26:cb:03:7a:
         ae:55:a0:03:0e:57:cb:6c:2d:bc:63:3a:9e:a2:ae:41:25:bc:
         f0:c3:46:73:cf:35:e6:53:c0:ac:03:80:9d:24:b4:89:0d:d0:
         80:81:cc:99:ae:09:5b:48:27:be:1a:8a:cc:a1:bb:ad:cf:a8:
         d8:25:14:68:10:9b:80:0e:fe:1a:bf:a0:ac:e3:96:3d:c6:6c:
         06:bb:e9:9f
-----BEGIN CERTIFICATE-----
MIIEGTCCAwGgAwIBAgIEEAAA0jANBgkqhkiG9w0BAQsFADBEMQswCQYDVQQGEwJE
RTEPMA0GA1UECAwGSGVzc2VuMRQwEgYDVQQKDAtwcml2YWN5aWRlYTEOMAwGA1UE
AwwFQ0EwMDEwHhcNMTgwNDE2MTkyNTEyWhcNMTkwNDE2MTkyNTEyWjBHMQswCQYD
VQQGEwJERTEPMA0GA1UECAwGSGVzc2VuMRQwEgYDVQQKDAtwcml2YWN5aWRlYTER
MA8GA1UEAwwIdXNlcmNlcnQwggEiMA0GCSqGSIb3DQEBAQUAA4IBDwAwggEKAoIB
AQDcL9FfKZfUfMNTyDC9S2dwLCRruF7rIXpIElZ8gVxIdbZo6/bymE5QUdF/bHPz
Cqeuvkhe5dbh2Sp8Mm5O/Qj2WlRJI3PDuQcY0e+zrPiK3JSWpJA6jnTf5g03G71b
tyUaVjnab5GqXhx08/l8FAGDEmV2x7v+NluV6XJlg+0+mDBx+ofdozZaMAMuJuBh
0b8CP7YGH0qJKBxcov9OvpTmjODagvGdKTJIMHO0BPZCHr734jIyJzydiS9wPoWa
b1zFCcCMMi9yIsnSlR+2rHJgcreCTWvOW+MA0NIvWMbgEOVRyk07LuZ+q4TWVvGT
NaCTZCaBdS+RtRYGOAvbzC0HAgMBAAGjggEOMIIBCjALBgNVHQ8EBAMCBaAwCQYD
VR0TBAIwADARBglghkgBhvhCAQEEBAMCBkAwMwYJYIZIAYb4QgENBCYWJE9wZW5T
U0wgR2VuZXJhdGVkIFNlcnZlciBDZXJ0aWZpY2F0ZTAdBgNVHQ4EFgQU/BTR8EuN
AJDy9bhxnk6Xw5JUrQswdAYDVR0jBG0wa4AU9KfAzJFGr2TzkfIn+Miyb4qHMnOh
SKRGMEQxCzAJBgNVBAYTAkRFMQ8wDQYDVQQIDAZIZXNzZW4xFDASBgNVBAoMC3By
aXZhY3lpZGVhMQ4wDAYDVQQDDAVDQTAwMYIJAPvI66yDzRIHMBMGA1UdJQQMMAoG
CCsGAQUFBwMBMA0GCSqGSIb3DQEBCwUAA4IBAQBc6pHnMy5YF3f5IsKsugv7Wxxp
16JeddR/fpsN4YYyP5D8B2xcrFs9tCPT3s/Z5XmGjtY1tdsNxWby0+ZmeTvdwPVM
nbyk6O0bcD8jqXfB8+ddSTlrCAuPhQpSI68Vlm3wM2M78EpkzYlqRdxnYPzdTJat
ixI3DxsyAB5IX9GwZaCXhuQQWiuTNI6svNW265paCsuLZqBJuPGCfldSCiorDeSv
/7FA//xSSsg9+xpNUybLA3quVaADDlfLbC28Yzqeoq5BJbzww0ZzzzXmU8CsA4Cd
JLSJDdCAgcyZrglbSCe+GorMobutz6jYJRRoEJuADv4av6Cs45Y9xmwGu+mf
-----END CERTIFICATE-----
