Certificate:
    Data:
        Version: 3 (0x2)
        Serial Number: 268435677 (0x100000dd)
    Signature Algorithm: sha256WithRSAEncryption
        Issuer: C=DE, ST=Hessen, O=privacyidea, CN=CA001
        Validity
            Not Before: Apr 12 09:34:00 2018 GMT
            Not After : Apr 12 09:34:00 2019 GMT
        Subject: C=DE, ST=Hessen, O=privacyidea, CN=requester.localdomain
        Subject Public Key Info:
            Public Key Algorithm: rsaEncryption
                Public-Key: (2048 bit)
                Modulus:
                    00:cd:be:14:4f:fa:ce:01:3f:42:22:1b:1d:9c:af:
                    dd:92:d2:7f:db:6c:b7:3e:39:43:43:6b:13:03:f1:
                    05:f4:07:74:bc:76:69:28:0b:af:19:8e:d7:fc:e3:
                    cd:c6:58:f2:ca:7f:08:6d:53:fc:07:02:44:24:c6:
                    b4:34:4c:8c:04:fe:33:0e:40:e2:20:ba:02:73:5a:
                    f7:f5:4f:63:6e:cc:c6:b6:df:54:1d:37:39:7d:51:
                    36:26:5f:bd:dc:3f:a8:8b:6b:a2:ae:b6:9d:d6:21:
                    e7:df:41:b8:7a:28:2a:68:48:ca:a8:2d:ed:e1:e9:
                    46:5e:5a:72:6d:b4:84:38:87:91:fd:94:11:0b:28:
                    84:c6:c2:2f:2a:fb:01:f9:36:7a:09:75:d1:33:88:
                    3c:73:41:5b:c8:bf:94:89:70:a1:f0:c0:b9:2e:50:
                    53:1e:b1:17:64:69:f4:2d:81:e0:a9:0d:0e:32:e9:
                    ba:55:8a:85:f1:1b:6f:49:79:b4:7f:88:c3:0d:3e:
                    54:88:9b:3d:1f:38:8c:04:f3:ee:6a:63:2b:f5:c6:
                    db:b4:83:aa:c4:78:41:3a:7d:4b:e1:c8:3e:71:ca:
                    1b:61:59:ea:c6:c4:ca:32:5e:c9:e9:bf:12:29:e6:
                    c6:c3:63:fe:a0:55:da:7a:f1:60:98:4d:26:ed:fa:
                    70:2d
                Exponent: 65537 (0x10001)
        X509v3 extensions:
            X509v3 Key Usage: 
                Digital Signature, Key Encipherment
            X509v3 Basic Constraints: 
                CA:FALSE
            Netscape Cert Type: 
                SSL Server
            Netscape Comment: 
                OpenSSL Generated Server Certificate
            X509v3 Subject Key Identifier: 
                53:3F:ED:5D:09:07:B3:65:7B:AB:45:C9:24:5B:09:77:80:0A:96:ED
            X509v3 Authority Key Identifier: 
                keyid:F4:A7:C0:CC:91:46:AF:64:F3:91:F2:27:F8:C8:B2:6F:8A:87:32:73
                DirName:/C=DE/ST=Hessen/O=privacyidea/CN=CA001
                serial:FB:C8:EB:AC:83:CD:12:07

            X509v3 Extended Key Usage: 
                TLS Web Server Authentication
    Signature Algorithm: sha256WithRSAEncryption
         1f:00:0b:9e:da:d9:c6:82:28:d2:f6:58:92:f1:13:19:2a:df:
         d6:bf:50:a7:84:b2:fe:da:67:ae:ae:dc:29:43:ec:56:48:47:
         56:c2:f8:8d:2b:b6:db:06:76:c2:6f:aa:9c:2f:85:78:6c:b9:
         c9:bc:1a:11:87:81:19:38:16:05:b2:33:c0:fe:97:c9:20:10:
         bd:6f:3e:e5:bd:6e:0c:ab:70:55:05:16:ec:1c:29:1e:d0:74:
         c8:40:c5:63:dc:34:9a:7b:af:a0:42:72:0a:51:48:f2:01:76:
         fe:6f:4e:9d:e7:40:db:e5:40:34:6a:66:46:4b:e3:dc:02:16:
         f7:3f:fc:36:ee:3b:de:0a:31:91:16:24:6f:9e:01:49:ce:c0:
         fc:32:7f:34:fa:8c:23:fc:7a:d5:05:c6:ad:69:45:e4:cd:87:
         95:ec:d9:1e:2c:52:59:ec:d2:99:ce:27:de:7f:c4:7d:49:dc:
         b6:5f:88:46:53:0b:76:cf:17:96:c6:9f:66:6b:61:39:a2:6d:
         b3:46:a0:7b:c2:85:76:6b:4b:bf:9f:51:89:14:58:a6:75:58:
         d2:fc:59:7e:3b:67:e8:4b:f8:6e:74:51:6b:6c:53:48:e1:7a:
         2a:18:e7:56:ff:d9:ba:50:62:29:e3:f6:0f:5d:75:56:ad:56:
         01:7b:46:18
-----BEGIN CERTIFICATE-----
MIIEJjCCAw6gAwIBAgIEEAAA3TANBgkqhkiG9w0BAQsFADBEMQswCQYDVQQGEwJE
RTEPMA0GA1UECAwGSGVzc2VuMRQwEgYDVQQKDAtwcml2YWN5aWRlYTEOMAwGA1UE
AwwFQ0EwMDEwHhcNMTgwNDEyMDkzNDAwWhcNMTkwNDEyMDkzNDAwWjBUMQswCQYD
VQQGEwJERTEPMA0GA1UECAwGSGVzc2VuMRQwEgYDVQQKDAtwcml2YWN5aWRlYTEe
MBwGA1UEAwwVcmVxdWVzdGVyLmxvY2FsZG9tYWluMIIBIjANBgkqhkiG9w0BAQEF
AAOCAQ8AMIIBCgKCAQEAzb4UT/rOAT9CIhsdnK/dktJ/22y3PjlDQ2sTA/EF9Ad0
vHZpKAuvGY7X/OPNxljyyn8IbVP8BwJEJMa0NEyMBP4zDkDiILoCc1r39U9jbszG
tt9UHTc5fVE2Jl+93D+oi2uirrad1iHn30G4eigqaEjKqC3t4elGXlpybbSEOIeR
/ZQRCyiExsIvKvsB+TZ6CXXRM4g8c0FbyL+UiXCh8MC5LlBTHrEXZGn0LYHgqQ0O
Mum6VYqF8RtvSXm0f4jDDT5UiJs9HziMBPPuamMr9cbbtIOqxHhBOn1L4cg+ccob
YVnqxsTKMl7J6b8SKebGw2P+oFXaevFgmE0m7fpwLQIDAQABo4IBDjCCAQowCwYD
VR0PBAQDAgWgMAkGA1UdEwQCMAAwEQYJYIZIAYb4QgEBBAQDAgZAMDMGCWCGSAGG
+EIBDQQmFiRPcGVuU1NMIEdlbmVyYXRlZCBTZXJ2ZXIgQ2VydGlmaWNhdGUwHQYD
VR0OBBYEFFM/7V0JB7Nle6tFySRbCXeACpbtMHQGA1UdIwRtMGuAFPSnwMyRRq9k
85HyJ/jIsm+KhzJzoUikRjBEMQswCQYDVQQGEwJERTEPMA0GA1UECAwGSGVzc2Vu
MRQwEgYDVQQKDAtwcml2YWN5aWRlYTEOMAwGA1UEAwwFQ0EwMDGCCQD7yOusg80S
BzATBgNVHSUEDDAKBggrBgEFBQcDATANBgkqhkiG9w0BAQsFAAOCAQEAHwALntrZ
xoIo0vZYkvETGSrf1r9Qp4Sy/tpnrq7cKUPsVkhHVsL4jSu22wZ2wm+qnC+FeGy5
ybwaEYeBGTgWBbIzwP6XySAQvW8+5b1uDKtwVQUW7BwpHtB0yEDFY9w0mnuvoEJy
ClFI8gF2/m9OnedA2+VANGpmRkvj3AIW9z/8Nu473goxkRYkb54BSc7A/DJ/NPqM
I/x61QXGrWlF5M2HlezZHixSWezSmc4n3n/EfUnctl+IRlMLds8XlsafZmthOaJt
s0age8KFdmtLv59RiRRYpnVY0vxZfjtn6Ev4bnRRa2xTSOF6KhjnVv/ZulBiKeP2
D111Vq1WAXtGGA==
-----END CERTIFICATE-----
