Certificate:
    Data:
        Version: 3 (0x2)
        Serial Number: 268435671 (0x100000d7)
    Signature Algorithm: sha256WithRSAEncryption
        Issuer: C=DE, ST=Hessen, O=privacyidea, CN=CA001
        Validity
            Not Before: Apr 16 19:37:28 2018 GMT
            Not After : Apr 16 19:37:28 2019 GMT
        Subject: CN=selfservice,CN=user,O=realm1/emailAddress=meine
        Subject Public Key Info:
            Public Key Algorithm: rsaEncryption
                Public-Key: (2048 bit)
                Modulus:
                    00:cf:3c:d4:33:0e:12:c4:e6:da:cd:b6:56:a1:1c:
                    26:bb:26:1c:8a:4a:73:a8:58:8a:b6:1e:b3:8b:99:
                    d2:1d:07:c2:92:89:79:c0:69:d8:c8:df:28:61:98:
                    1e:b3:fe:ae:2b:bd:78:a9:f7:6e:47:dc:a3:a0:16:
                    8c:85:02:c1:4e:92:fd:72:6e:f0:c8:03:29:9b:b8:
                    00:6e:c0:83:95:c8:34:20:36:9c:b3:e5:e4:e6:76:
                    73:a3:1a:ad:40:96:e0:53:54:00:ec:76:79:9a:c6:
                    0d:7e:b6:bd:29:ec:83:f3:cb:89:a4:cb:6c:00:ba:
                    0c:c5:78:0f:ff:69:b8:94:f4:04:70:43:3f:d8:9e:
                    d7:a7:fb:5d:ce:75:8e:da:e7:c4:07:b1:9d:de:6f:
                    88:4b:b6:4d:9a:cf:f9:bc:fa:9f:cd:32:6d:f6:3a:
                    0b:0d:23:42:78:ec:97:42:bf:0e:4d:60:56:e1:d3:
                    02:f2:19:cb:84:57:90:e5:70:a1:a2:83:35:86:e2:
                    da:86:9f:f9:8a:c4:79:b3:52:28:da:cb:bb:34:ca:
                    d3:da:91:4a:cf:8d:76:a2:b2:6b:9b:f9:96:fd:09:
                    2a:da:11:23:4d:f0:cb:d6:b2:b1:0e:12:6c:9a:19:
                    65:98:87:ca:e4:ee:24:ce:44:ac:90:8f:9d:1b:c5:
                    2a:9d
                Exponent: 65537 (0x10001)
        X509v3 extensions:
            X509v3 Key Usage: 
                Digital Signature, Key Encipherment
            X509v3 Basic Constraints: 
                CA:FALSE
            Netscape Cert Type: 
                SSL Server
            Netscape Comment: 
                OpenSSL Generated Server Certificate
            X509v3 Subject Key Identifier: 
                4D:07:90:AD:FF:1D:0D:E7:1A:DD:D6:2E:FA:BA:34:CB:AA:1F:24:C6
            X509v3 Authority Key Identifier: 
                keyid:F4:A7:C0:CC:91:46:AF:64:F3:91:F2:27:F8:C8:B2:6F:8A:87:32:73
                DirName:/C=DE/ST=Hessen/O=privacyidea/CN=CA001
                serial:FB:C8:EB:AC:83:CD:12:07

            X509v3 Extended Key Usage: 
                TLS Web Server Authentication
    Signature Algorithm: sha256WithRSAEncryption
         6a:f5:ba:b2:3d:95:00:ce:fa:0e:93:99:cd:64:b1:3c:83:b7:
         61:72:c4:0a:ad:06:73:95:43:e7:94:1b:10:96:81:e6:cc:cc:
         7a:1a:64:f6:f7:6d:5e:f5:a9:f4:35:10:62:b5:18:f2:53:bf:
         a8:5f:c6:89:dc:60:a8:dd:f6:d3:55:60:c9:12:de:b3:40:c4:
         a7:18:ab:c3:be:05:7a:c4:44:74:ca:24:4c:da:80:2a:9e:a8:
         4e:d7:99:de:d4:62:cb:21:a5:41:4a:99:bf:dc:cc:ba:b6:d6:
         10:3b:f2:bf:8d:54:b2:2a:8d:c7:44:0f:49:68:e1:6d:78:f4:
         f2:58:f5:78:4c:36:5b:fa:36:92:2a:ca:56:63:b0:01:88:5f:
         66:26:ba:85:19:ed:be:09:7c:6b:b6:98:37:46:cf:00:60:e3:
         f5:97:8e:9a:64:a3:42:94:f7:86:63:10:a8:b6:47:8e:b3:21:
         c3:67:e8:e4:a7:58:5b:8c:c0:38:69:10:a9:95:f5:0a:6d:7b:
         ad:da:32:88:5d:34:f7:22:d9:1a:5d:14:c1:3a:4e:58:4a:63:
         50:ec:b2:ff:8e:c1:63:87:8d:a8:93:ac:70:49:3c:1b:d0:df:
         33:6b:78:c1:d1:9f:5c:6d:33:c2:20:6a:4f:b3:81:3f:06:ea:
         fe:63:35:03
-----BEGIN CERTIFICATE-----
MIIEDzCCAvegAwIBAgIEEAAA1zANBgkqhkiG9w0BAQsFADBEMQswCQYDVQQGEwJE
RTEPMA0GA1UECAwGSGVzc2VuMRQwEgYDVQQKDAtwcml2YWN5aWRlYTEOMAwGA1UE
AwwFQ0EwMDEwHhcNMTgwNDE2MTkzNzI4WhcNMTkwNDE2MTkzNzI4WjA9MSUwIwYD
VQQDDBxzZWxmc2VydmljZSxDTj11c2VyLE89cmVhbG0xMRQwEgYJKoZIhvcNAQkB
FgVtZWluZTCCASIwDQYJKoZIhvcNAQEBBQADggEPADCCAQoCggEBAM881DMOEsTm
2s22VqEcJrsmHIpKc6hYirYes4uZ0h0HwpKJecBp2MjfKGGYHrP+riu9eKn3bkfc
o6AWjIUCwU6S/XJu8MgDKZu4AG7Ag5XINCA2nLPl5OZ2c6MarUCW4FNUAOx2eZrG
DX62vSnsg/PLiaTLbAC6DMV4D/9puJT0BHBDP9ie16f7Xc51jtrnxAexnd5viEu2
TZrP+bz6n80ybfY6Cw0jQnjsl0K/Dk1gVuHTAvIZy4RXkOVwoaKDNYbi2oaf+YrE
ebNSKNrLuzTK09qRSs+NdqKya5v5lv0JKtoRI03wy9aysQ4SbJoZZZiHyuTuJM5E
rJCPnRvFKp0CAwEAAaOCAQ4wggEKMAsGA1UdDwQEAwIFoDAJBgNVHRMEAjAAMBEG
CWCGSAGG+EIBAQQEAwIGQDAzBglghkgBhvhCAQ0EJhYkT3BlblNTTCBHZW5lcmF0
ZWQgU2VydmVyIENlcnRpZmljYXRlMB0GA1UdDgQWBBRNB5Ct/x0N5xrd1i76ujTL
qh8kxjB0BgNVHSMEbTBrgBT0p8DMkUavZPOR8if4yLJviocyc6FIpEYwRDELMAkG
A1UEBhMCREUxDzANBgNVBAgMBkhlc3NlbjEUMBIGA1UECgwLcHJpdmFjeWlkZWEx
DjAMBgNVBAMMBUNBMDAxggkA+8jrrIPNEgcwEwYDVR0lBAwwCgYIKwYBBQUHAwEw
DQYJKoZIhvcNAQELBQADggEBAGr1urI9lQDO+g6Tmc1ksTyDt2FyxAqtBnOVQ+eU
GxCWgebMzHoaZPb3bV71qfQ1EGK1GPJTv6hfxoncYKjd9tNVYMkS3rNAxKcYq8O+
BXrERHTKJEzagCqeqE7Xmd7UYsshpUFKmb/czLq21hA78r+NVLIqjcdED0lo4W14
9PJY9XhMNlv6NpIqylZjsAGIX2YmuoUZ7b4JfGu2mDdGzwBg4/WXjppko0KU94Zj
EKi2R46zIcNn6OSnWFuMwDhpEKmV9Qpte63aMohdNPci2RpdFME6TlhKY1Dssv+O
wWOHjaiTrHBJPBvQ3zNreMHRn1xtM8Igak+zgT8G6v5jNQM=
-----END CERTIFICATE-----
