Certificate:
    Data:
        Version: 3 (0x2)
        Serial Number: 268435675 (0x100000db)
    Signature Algorithm: sha256WithRSAEncryption
        Issuer: C=DE, ST=Hessen, O=privacyidea, CN=CA001
        Validity
            Not Before: Apr 12 09:30:09 2018 GMT
            Not After : Apr 12 09:30:09 2019 GMT
        Subject: CN=Steve Test/emailAddress=steve@openssl.org
        Subject Public Key Info:
            Public Key Algorithm: rsaEncryption
                Public-Key: (2048 bit)
                Modulus:
                    00:d2:81:89:20:51:48:0f:73:f4:11:32:24:d5:1f:
                    1c:fd:5c:f5:b6:e6:c5:f0:52:81:dc:d2:af:66:4a:
                    7c:93:31:61:5c:af:d1:6d:06:70:03:60:7c:72:0c:
                    88:dd:49:cd:9e:02:6c:d2:5a:d7:53:0f:f3:da:be:
                    69:64:b5:0f:0c:00:e3:b3:50:47:a3:b3:9b:ba:13:
                    50:d6:58:5a:4b:ab:39:e0:11:ca:0a:27:67:03:78:
                    22:66:6d:92:1e:1b:5c:49:ae:e6:6b:d1:8e:3b:9d:
                    06:d3:c6:ac:4d:53:43:10:ab:e8:96:c1:87:82:97:
                    99:8f:20:d3:99:12:37:31:84:e1:8a:ff:29:03:5f:
                    22:90:3e:7f:9b:e0:20:c1:ad:dc:ae:4c:39:1a:31:
                    96:17:02:8c:b2:d9:b4:0d:20:12:9b:7d:86:54:fd:
                    33:fd:c1:2a:62:46:f8:60:96:cf:6e:01:6f:22:df:
                    13:47:e7:97:ec:05:72:23:a3:62:f8:fa:ef:ac:9c:
                    72:f0:37:cb:2f:37:cf:90:a8:27:51:86:c6:d7:78:
                    08:8f:7e:25:a2:15:70:a2:fb:1c:b6:15:5e:a0:97:
                    8b:81:4c:09:28:8a:27:3b:94:bc:71:db:5b:71:37:
                    9a:2b:16:e0:6f:b5:c9:f5:4b:4f:20:ba:65:cf:af:
                    ad:ad
                Exponent: 65537 (0x10001)
        X509v3 extensions:
            X509v3 Key Usage: 
                Digital Signature, Key Encipherment
            X509v3 Basic Constraints: 
                CA:FALSE
            Netscape Cert Type: 
                SSL Server
            Netscape Comment: 
                OpenSSL Generated Server Certificate
            X509v3 Subject Key Identifier: 
                E5:25:6D:3E:AF:0D:DD:3F:4C:F2:45:19:39:D5:14:DB:7E:9C:C0:AD
            X509v3 Authority Key Identifier: 
                keyid:F4:A7:C0:CC:91:46:AF:64:F3:91:F2:27:F8:C8:B2:6F:8A:87:32:73
                DirName:/C=DE/ST=Hessen/O=privacyidea/CN=CA001
                serial:FB:C8:EB:AC:83:CD:12:07

            X509v3 Extended Key Usage: 
                TLS Web Server Authentication
    Signature Algorithm: sha256WithRSAEncryption
         6d:fd:6c:2d:53:e9:5c:df:df:15:05:ff:ae:f9:ac:f6:3e:54:
         d8:03:eb:a6:d8:0f:40:79:d1:f8:2f:75:46:80:b8:db:19:2e:
         f4:bd:0b:f3:3b:be:24:ae:e0:41:d4:12:2b:58:b8:82:f3:61:
         98:3e:b0:ca:93:08:d9:d4:e3:d4:81:f1:0f:b3:f9:ba:bc:93:
         5f:f0:ab:85:14:e4:4b:31:80:17:0d:c4:3b:a9:d4:0f:f8:f1:
         11:37:74:93:be:fa:67:c7:68:d4:3f:4a:77:48:98:e0:46:fc:
         da:4e:4b:85:dd:f9:f8:f5:0a:1a:b8:78:b7:a1:1d:b6:4f:f0:
         03:61:d1:2c:06:95:57:00:b5:3d:4f:9c:09:60:5a:fe:48:7e:
         47:b4:f2:ba:71:44:b2:c0:d0:91:e1:d8:06:90:6a:14:89:e7:
         e5:1b:2f:02:14:fb:ea:2b:dc:46:2b:46:52:ce:0e:71:c2:b9:
         3f:54:18:18:06:af:3d:91:37:33:58:91:44:92:7b:00:12:eb:
         3c:41:bb:44:97:c8:6d:f6:67:f1:88:82:e9:a6:bc:c7:ea:27:
         1f:db:52:96:44:5e:a2:6c:e9:8e:62:4b:b5:4d:ce:fb:9b:18:
         3c:0e:bb:24:ac:f7:8f:6d:75:0b:75:5d:f9:40:b7:86:10:5f:
         db:6b:47:8f
-----BEGIN CERTIFICATE-----
MIIECTCCAvGgAwIBAgIEEAAA2zANBgkqhkiG9w0BAQsFADBEMQswCQYDVQQGEwJE
RTEPMA0GA1UECAwGSGVzc2VuMRQwEgYDVQQKDAtwcml2YWN5aWRlYTEOMAwGA1UE
AwwFQ0EwMDEwHhcNMTgwNDEyMDkzMDA5WhcNMTkwNDEyMDkzMDA5WjA3MRMwEQYD
VQQDDApTdGV2ZSBUZXN0MSAwHgYJKoZIhvcNAQkBFhFzdGV2ZUBvcGVuc3NsLm9y
ZzCCASIwDQYJKoZIhvcNAQEBBQADggEPADCCAQoCggEBANKBiSBRSA9z9BEyJNUf
HP1c9bbmxfBSgdzSr2ZKfJMxYVyv0W0GcANgfHIMiN1JzZ4CbNJa11MP89q+aWS1
DwwA47NQR6Ozm7oTUNZYWkurOeARygonZwN4ImZtkh4bXEmu5mvRjjudBtPGrE1T
QxCr6JbBh4KXmY8g05kSNzGE4Yr/KQNfIpA+f5vgIMGt3K5MORoxlhcCjLLZtA0g
Ept9hlT9M/3BKmJG+GCWz24BbyLfE0fnl+wFciOjYvj676yccvA3yy83z5CoJ1GG
xtd4CI9+JaIVcKL7HLYVXqCXi4FMCSiKJzuUvHHbW3E3misW4G+1yfVLTyC6Zc+v
ra0CAwEAAaOCAQ4wggEKMAsGA1UdDwQEAwIFoDAJBgNVHRMEAjAAMBEGCWCGSAGG
+EIBAQQEAwIGQDAzBglghkgBhvhCAQ0EJhYkT3BlblNTTCBHZW5lcmF0ZWQgU2Vy
dmVyIENlcnRpZmljYXRlMB0GA1UdDgQWBBTlJW0+rw3dP0zyRRk51RTbfpzArTB0
BgNVHSMEbTBrgBT0p8DMkUavZPOR8if4yLJviocyc6FIpEYwRDELMAkGA1UEBhMC
REUxDzANBgNVBAgMBkhlc3NlbjEUMBIGA1UECgwLcHJpdmFjeWlkZWExDjAMBgNV
BAMMBUNBMDAxggkA+8jrrIPNEgcwEwYDVR0lBAwwCgYIKwYBBQUHAwEwDQYJKoZI
hvcNAQELBQADggEBAG39bC1T6Vzf3xUF/675rPY+VNgD66bYD0B50fgvdUaAuNsZ
LvS9C/M7viSu4EHUEitYuILzYZg+sMqTCNnU49SB8Q+z+bq8k1/wq4UU5EsxgBcN
xDup1A/48RE3dJO++mfHaNQ/SndImOBG/NpOS4Xd+fj1Chq4eLehHbZP8ANh0SwG
lVcAtT1PnAlgWv5Ifke08rpxRLLA0JHh2AaQahSJ5+UbLwIU++or3EYrRlLODnHC
uT9UGBgGrz2RNzNYkUSSewAS6zxBu0SXyG32Z/GIgummvMfqJx/bUpZEXqJs6Y5i
S7VNzvubGDwOuySs949tdQt1XflAt4YQX9trR48=
-----END CERTIFICATE-----
