Certificate:
    Data:
        Version: 3 (0x2)
        Serial Number: 268435673 (0x100000d9)
    Signature Algorithm: sha256WithRSAEncryption
        Issuer: C=DE, ST=Hessen, O=privacyidea, CN=CA001
        Validity
            Not Before: Apr 12 09:30:08 2018 GMT
            Not After : Apr 12 09:30:08 2019 GMT
        Subject: C=DE, ST=Hessen, O=privacyidea, CN=requester.localdomain
        Subject Public Key Info:
            Public Key Algorithm: rsaEncryption
                Public-Key: (2048 bit)
                Modulus:
                    00:cd:be:14:4f:fa:ce:01:3f:42:22:1b:1d:9c:af:
                    dd:92:d2:7f:db:6c:b7:3e:39:43:43:6b:13:03:f1:
                    05:f4:07:74:bc:76:69:28:0b:af:19:8e:d7:fc:e3:
                    cd:c6:58:f2:ca:7f:08:6d:53:fc:07:02:44:24:c6:
                    b4:34:4c:8c:04:fe:33:0e:40:e2:20:ba:02:73:5a:
                    f7:f5:4f:63:6e:cc:c6:b6:df:54:1d:37:39:7d:51:
                    36:26:5f:bd:dc:3f:a8:8b:6b:a2:ae:b6:9d:d6:21:
                    e7:df:41:b8:7a:28:2a:68:48:ca:a8:2d:ed:e1:e9:
                    46:5e:5a:72:6d:b4:84:38:87:91:fd:94:11:0b:28:
                    84:c6:c2:2f:2a:fb:01:f9:36:7a:09:75:d1:33:88:
                    3c:73:41:5b:c8:bf:94:89:70:a1:f0:c0:b9:2e:50:
                    53:1e:b1:17:64:69:f4:2d:81:e0:a9:0d:0e:32:e9:
                    ba:55:8a:85:f1:1b:6f:49:79:b4:7f:88:c3:0d:3e:
                    54:88:9b:3d:1f:38:8c:04:f3:ee:6a:63:2b:f5:c6:
                    db:b4:83:aa:c4:78:41:3a:7d:4b:e1:c8:3e:71:ca:
                    1b:61:59:ea:c6:c4:ca:32:5e:c9:e9:bf:12:29:e6:
                    c6:c3:63:fe:a0:55:da:7a:f1:60:98:4d:26:ed:fa:
                    70:2d
                Exponent: 65537 (0x10001)
        X509v3 extensions:
            X509v3 Key Usage: 
                Digital Signature, Key Encipherment
            X509v3 Basic Constraints: 
                CA:FALSE
            Netscape Cert Type: 
                SSL Server
            Netscape Comment: 
                OpenSSL Generated Server Certificate
            X509v3 Subject Key Identifier: 
                53:3F:ED:5D:09:07:B3:65:7B:AB:45:C9:24:5B:09:77:80:0A:96:ED
            X509v3 Authority Key Identifier: 
                keyid:F4:A7:C0:CC:91:46:AF:64:F3:91:F2:27:F8:C8:B2:6F:8A:87:32:73
                DirName:/C=DE/ST=Hessen/O=privacyidea/CN=CA001
                serial:FB:C8:EB:AC:83:CD:12:07

            X509v3 Extended Key Usage: 
                TLS Web Server Authentication
    Signature Algorithm: sha256WithRSAEncryption
         2e:52:82:70:5b:e7:4d:18:de:ee:4a:cd:64:e1:d5:ed:aa:04:
         7d:f0:23:32:bc:45:aa:fe:7c:1e:b4:dd:7b:47:01:da:8b:57:
         78:88:28:81:cc:a4:f0:2f:fc:5a:9d:3e:42:32:78:12:66:70:
         95:2f:93:a8:b8:83:82:33:48:05:e8:25:f4:f8:4b:80:0b:06:
         2f:33:44:c9:a6:c6:0e:e9:05:66:a3:61:86:08:bd:3b:2a:46:
         40:48:8f:14:68:49:9a:65:d4:85:b2:ca:4d:ae:05:e1:a8:2c:
         54:90:cf:eb:05:ec:70:42:47:52:8b:52:4d:e7:6d:65:99:f9:
         39:40:9f:eb:f7:77:98:1f:e1:fd:ed:c1:d5:a7:0b:6b:01:6e:
         6e:35:df:5c:c9:98:5a:42:27:9a:2f:eb:7e:9f:f0:08:98:83:
         6a:2a:67:23:89:24:1b:06:0c:95:a9:de:18:21:2f:8a:40:e0:
         f6:69:ff:2a:d8:bb:b9:a3:a5:0d:bc:bd:6b:cb:d4:7a:2c:42:
         d5:a6:0f:ef:fe:35:7f:d4:a6:7c:41:1e:03:5d:f3:71:17:53:
         7c:f8:37:01:b6:e8:8a:ff:f8:77:84:1b:06:8c:91:a8:2a:a9:
         27:89:05:eb:0b:77:a3:5e:f1:56:5e:8e:3b:b2:59:f6:c6:76:
         16:8b:90:16
-----BEGIN CERTIFICATE-----
MIIEJjCCAw6gAwIBAgIEEAAA2TANBgkqhkiG9w0BAQsFADBEMQswCQYDVQQGEwJE
RTEPMA0GA1UECAwGSGVzc2VuMRQwEgYDVQQKDAtwcml2YWN5aWRlYTEOMAwGA1UE
AwwFQ0EwMDEwHhcNMTgwNDEyMDkzMDA4WhcNMTkwNDEyMDkzMDA4WjBUMQswCQYD
VQQGEwJERTEPMA0GA1UECAwGSGVzc2VuMRQwEgYDVQQKDAtwcml2YWN5aWRlYTEe
MBwGA1UEAwwVcmVxdWVzdGVyLmxvY2FsZG9tYWluMIIBIjANBgkqhkiG9w0BAQEF
AAOCAQ8AMIIBCgKCAQEAzb4UT/rOAT9CIhsdnK/dktJ/22y3PjlDQ2sTA/EF9Ad0
vHZpKAuvGY7X/OPNxljyyn8IbVP8BwJEJMa0NEyMBP4zDkDiILoCc1r39U9jbszG
tt9UHTc5fVE2Jl+93D+oi2uirrad1iHn30G4eigqaEjKqC3t4elGXlpybbSEOIeR
/ZQRCyiExsIvKvsB+TZ6CXXRM4g8c0FbyL+UiXCh8MC5LlBTHrEXZGn0LYHgqQ0O
Mum6VYqF8RtvSXm0f4jDDT5UiJs9HziMBPPuamMr9cbbtIOqxHhBOn1L4cg+ccob
YVnqxsTKMl7J6b8SKebGw2P+oFXaevFgmE0m7fpwLQIDAQABo4IBDjCCAQowCwYD
VR0PBAQDAgWgMAkGA1UdEwQCMAAwEQYJYIZIAYb4QgEBBAQDAgZAMDMGCWCGSAGG
+EIBDQQmFiRPcGVuU1NMIEdlbmVyYXRlZCBTZXJ2ZXIgQ2VydGlmaWNhdGUwHQYD
VR0OBBYEFFM/7V0JB7Nle6tFySRbCXeACpbtMHQGA1UdIwRtMGuAFPSnwMyRRq9k
85HyJ/jIsm+KhzJzoUikRjBEMQswCQYDVQQGEwJERTEPMA0GA1UECAwGSGVzc2Vu
MRQwEgYDVQQKDAtwcml2YWN5aWRlYTEOMAwGA1UEAwwFQ0EwMDGCCQD7yOusg80S
BzATBgNVHSUEDDAKBggrBgEFBQcDATANBgkqhkiG9w0BAQsFAAOCAQEALlKCcFvn
TRje7krNZOHV7aoEffAjMrxFqv58HrTde0cB2otXeIgogcyk8C/8Wp0+QjJ4EmZw
lS+TqLiDgjNIBegl9PhLgAsGLzNEyabGDukFZqNhhgi9OypGQEiPFGhJmmXUhbLK
Ta4F4agsVJDP6wXscEJHUotSTedtZZn5OUCf6/d3mB/h/e3B1acLawFubjXfXMmY
WkInmi/rfp/wCJiDaipnI4kkGwYMlaneGCEvikDg9mn/Kti7uaOlDby9a8vUeixC
1aYP7/41f9SmfEEeA13zcRdTfPg3Abboiv/4d4QbBoyRqCqpJ4kF6wt3o17xVl6O
O7JZ9sZ2FouQFg==
-----END CERTIFICATE-----
