Certificate:
    Data:
        Version: 3 (0x2)
        Serial Number: 268435667 (0x100000d3)
    Signature Algorithm: sha256WithRSAEncryption
        Issuer: C=DE, ST=Hessen, O=privacyidea, CN=CA001
        Validity
            Not Before: Apr 16 19:25:12 2018 GMT
            Not After : Apr 16 19:25:12 2019 GMT
        Subject: CN=Steve Test/emailAddress=steve@openssl.org
        Subject Public Key Info:
            Public Key Algorithm: rsaEncryption
                Public-Key: (2048 bit)
                Modulus:
                    00:d2:81:89:20:51:48:0f:73:f4:11:32:24:d5:1f:
                    1c:fd:5c:f5:b6:e6:c5:f0:52:81:dc:d2:af:66:4a:
                    7c:93:31:61:5c:af:d1:6d:06:70:03:60:7c:72:0c:
                    88:dd:49:cd:9e:02:6c:d2:5a:d7:53:0f:f3:da:be:
                    69:64:b5:0f:0c:00:e3:b3:50:47:a3:b3:9b:ba:13:
                    50:d6:58:5a:4b:ab:39:e0:11:ca:0a:27:67:03:78:
                    22:66:6d:92:1e:1b:5c:49:ae:e6:6b:d1:8e:3b:9d:
                    06:d3:c6:ac:4d:53:43:10:ab:e8:96:c1:87:82:97:
                    99:8f:20:d3:99:12:37:31:84:e1:8a:ff:29:03:5f:
                    22:90:3e:7f:9b:e0:20:c1:ad:dc:ae:4c:39:1a:31:
                    96:17:02:8c:b2:d9:b4:0d:20:12:9b:7d:86:54:fd:
                    33:fd:c1:2a:62:46:f8:60:96:cf:6e:01:6f:22:df:
                    13:47:e7:97:ec:05:72:23:a3:62:f8:fa:ef:ac:9c:
                    72:f0:37:cb:2f:37:cf:90:a8:27:51:86:c6:d7:78:
                    08:8f:7e:25:a2:15:70:a2:fb:1c:b6:15:5e:a0:97:
                    8b:81:4c:09:28:8a:27:3b:94:bc:71:db:5b:71:37:
                    9a:2b:16:e0:6f:b5:c9:f5:4b:4f:20:ba:65:cf:af:
                    ad:ad
                Exponent: 65537 (0x10001)
        X509v3 extensions:
            X509v3 Key Usage: 
                Digital Signature, Key Encipherment
            X509v3 Basic Constraints: 
                CA:FALSE
            Netscape Cert Type: 
                SSL Server
            Netscape Comment: 
                OpenSSL Generated Server Certificate
            X509v3 Subject Key Identifier: 
                E5:25:6D:3E:AF:0D:DD:3F:4C:F2:45:19:39:D5:14:DB:7E:9C:C0:AD
            X509v3 Authority Key Identifier: 
                keyid:F4:A7:C0:CC:91:46:AF:64:F3:91:F2:27:F8:C8:B2:6F:8A:87:32:73
                DirName:/C=DE/ST=Hessen/O=privacyidea/CN=CA001
                serial:FB:C8:EB:AC:83:CD:12:07

            X509v3 Extended Key Usage: 
                TLS Web Server Authentication
    Signature Algorithm: sha256WithRSAEncryption
         46:40:76:89:c0:9b:b8:0c:1a:dd:4b:1c:44:1b:26:d5:80:fb:
         58:29:95:86:57:28:92:98:75:dd:cf:8a:6c:a8:d6:35:a6:00:
         83:3c:61:ff:9a:e8:01:ee:99:68:86:3c:6b:8b:52:8a:d2:31:
         ce:1f:10:e8:64:60:2c:ca:d4:0e:d5:7f:a5:1d:04:de:5d:90:
         52:95:22:2d:89:56:51:d5:18:5c:9b:ef:43:f7:c9:94:72:3c:
         f7:c5:e1:b8:23:e2:8d:7d:29:4a:37:70:1b:f3:a9:d9:bb:20:
         de:71:80:c0:02:ef:cf:4a:e6:f7:d0:b5:c2:72:b4:b1:6a:ba:
         94:cb:a9:a0:48:e7:87:08:6e:32:f8:dd:84:d8:6a:9f:e1:84:
         27:27:31:28:d8:87:31:56:67:37:31:20:56:46:19:f8:d3:4a:
         51:e6:a1:0a:c1:18:1f:ea:fe:d2:b2:f3:43:c0:8a:d1:37:96:
         14:12:50:6c:2c:f6:96:33:e1:26:45:5c:5b:a4:17:26:9a:bc:
         e4:fd:8c:05:4b:85:50:6a:cd:68:7e:b8:e5:1a:2c:88:d6:9d:
         e3:a7:78:98:6f:13:81:07:72:49:3c:d6:ec:5b:4f:dc:e6:f8:
         38:97:c9:c3:21:2b:3f:eb:d6:9e:2c:ac:9b:1e:67:e7:23:9f:
         74:d8:33:00
-----BEGIN CERTIFICATE-----
MIIECTCCAvGgAwIBAgIEEAAA0zANBgkqhkiG9w0BAQsFADBEMQswCQYDVQQGEwJE
RTEPMA0GA1UECAwGSGVzc2VuMRQwEgYDVQQKDAtwcml2YWN5aWRlYTEOMAwGA1UE
AwwFQ0EwMDEwHhcNMTgwNDE2MTkyNTEyWhcNMTkwNDE2MTkyNTEyWjA3MRMwEQYD
VQQDDApTdGV2ZSBUZXN0MSAwHgYJKoZIhvcNAQkBFhFzdGV2ZUBvcGVuc3NsLm9y
ZzCCASIwDQYJKoZIhvcNAQEBBQADggEPADCCAQoCggEBANKBiSBRSA9z9BEyJNUf
HP1c9bbmxfBSgdzSr2ZKfJMxYVyv0W0GcANgfHIMiN1JzZ4CbNJa11MP89q+aWS1
DwwA47NQR6Ozm7oTUNZYWkurOeARygonZwN4ImZtkh4bXEmu5mvRjjudBtPGrE1T
QxCr6JbBh4KXmY8g05kSNzGE4Yr/KQNfIpA+f5vgIMGt3K5MORoxlhcCjLLZtA0g
Ept9hlT9M/3BKmJG+GCWz24BbyLfE0fnl+wFciOjYvj676yccvA3yy83z5CoJ1GG
xtd4CI9+JaIVcKL7HLYVXqCXi4FMCSiKJzuUvHHbW3E3misW4G+1yfVLTyC6Zc+v
ra0CAwEAAaOCAQ4wggEKMAsGA1UdDwQEAwIFoDAJBgNVHRMEAjAAMBEGCWCGSAGG
+EIBAQQEAwIGQDAzBglghkgBhvhCAQ0EJhYkT3BlblNTTCBHZW5lcmF0ZWQgU2Vy
dmVyIENlcnRpZmljYXRlMB0GA1UdDgQWBBTlJW0+rw3dP0zyRRk51RTbfpzArTB0
BgNVHSMEbTBrgBT0p8DMkUavZPOR8if4yLJviocyc6FIpEYwRDELMAkGA1UEBhMC
REUxDzANBgNVBAgMBkhlc3NlbjEUMBIGA1UECgwLcHJpdmFjeWlkZWExDjAMBgNV
BAMMBUNBMDAxggkA+8jrrIPNEgcwEwYDVR0lBAwwCgYIKwYBBQUHAwEwDQYJKoZI
hvcNAQELBQADggEBAEZAdonAm7gMGt1LHEQbJtWA+1gplYZXKJKYdd3Pimyo1jWm
AIM8Yf+a6AHumWiGPGuLUorSMc4fEOhkYCzK1A7Vf6UdBN5dkFKVIi2JVlHVGFyb
70P3yZRyPPfF4bgj4o19KUo3cBvzqdm7IN5xgMAC789K5vfQtcJytLFqupTLqaBI
54cIbjL43YTYap/hhCcnMSjYhzFWZzcxIFZGGfjTSlHmoQrBGB/q/tKy80PAitE3
lhQSUGws9pYz4SZFXFukFyaavOT9jAVLhVBqzWh+uOUaLIjWneOneJhvE4EHckk8
1uxbT9zm+DiXycMhKz/r1p4srJseZ+cjn3TYMwA=
-----END CERTIFICATE-----
