Certificate:
    Data:
        Version: 3 (0x2)
        Serial Number: 268435670 (0x100000d6)
    Signature Algorithm: sha256WithRSAEncryption
        Issuer: C=DE, ST=Hessen, O=privacyidea, CN=CA001
        Validity
            Not Before: Apr 16 19:29:21 2018 GMT
            Not After : Apr 16 19:29:21 2019 GMT
        Subject: OU=realm1, CN=cornelius/emailAddress=user@localhost.localdomain
        Subject Public Key Info:
            Public Key Algorithm: rsaEncryption
                Public-Key: (2048 bit)
                Modulus:
                    00:e0:dc:54:52:ad:24:c1:39:05:01:00:53:0a:c5:
                    bd:52:41:d4:3a:9f:19:3a:92:0d:cf:95:2a:e0:33:
                    42:77:f1:7f:36:a6:76:9f:d8:b0:74:77:06:e3:06:
                    66:08:67:d0:eb:f9:55:71:11:43:6c:c4:3e:0b:02:
                    54:f5:c2:0e:3a:ec:99:aa:d0:6d:96:dd:a5:89:ac:
                    3b:da:07:f6:9b:88:e0:ad:d1:b8:0c:d3:1e:68:9c:
                    fa:1c:bb:fa:59:cf:46:d7:4b:11:71:da:6d:09:5f:
                    9d:0f:58:00:e4:e9:b5:12:3b:4e:5f:5b:05:3d:0a:
                    27:c7:c8:66:de:50:4a:27:e8:b0:78:32:fb:a8:c6:
                    1e:03:2c:3e:27:f5:3c:f0:b5:fa:12:64:16:61:62:
                    24:49:5b:54:34:55:e5:99:fe:92:8a:7d:7a:1a:4e:
                    a6:69:fa:83:27:6e:b7:9a:83:80:1e:47:52:18:c9:
                    e1:73:04:78:b5:b1:61:b8:73:d8:10:44:27:f4:bd:
                    8e:cc:6e:78:45:b5:0e:cb:a7:e5:cd:65:88:93:74:
                    09:eb:17:be:d1:1a:98:f3:91:da:d8:bd:fc:54:3c:
                    2b:76:c7:5c:c9:cb:c9:fa:b7:19:94:72:96:ac:69:
                    d5:a3:97:4f:f3:4a:bd:4c:43:8b:53:aa:89:a8:31:
                    2f:65
                Exponent: 65537 (0x10001)
        X509v3 extensions:
            X509v3 Key Usage: 
                Digital Signature, Key Encipherment
            X509v3 Basic Constraints: 
                CA:FALSE
            Netscape Cert Type: 
                SSL Server
            Netscape Comment: 
                OpenSSL Generated Server Certificate
            X509v3 Subject Key Identifier: 
                78:6C:09:6D:CA:27:7D:DC:5D:50:D5:14:D4:29:4B:E4:D4:3B:50:C1
            X509v3 Authority Key Identifier: 
                keyid:F4:A7:C0:CC:91:46:AF:64:F3:91:F2:27:F8:C8:B2:6F:8A:87:32:73
                DirName:/C=DE/ST=Hessen/O=privacyidea/CN=CA001
                serial:FB:C8:EB:AC:83:CD:12:07

            X509v3 Extended Key Usage: 
                TLS Web Server Authentication
    Signature Algorithm: sha256WithRSAEncryption
         5b:4d:c9:70:87:c0:42:89:3c:82:9c:35:e5:a1:4b:7c:a9:f5:
         cf:48:e9:87:61:54:61:43:8f:6c:0c:2f:31:20:d3:0e:5a:fd:
         cd:e4:af:2f:15:d3:84:bf:18:66:6c:b0:db:7a:fc:b7:62:dd:
         e0:a4:2c:c3:7f:a4:4b:20:2d:2d:f2:e4:b5:01:1a:fa:87:95:
         5f:47:1e:32:50:ae:a1:ea:56:6f:30:7e:e2:4c:44:92:7d:62:
         0d:eb:fc:5b:3d:53:e9:eb:b9:3b:64:52:5e:be:a6:4d:f2:80:
         99:71:40:54:f2:fa:9f:72:ff:de:49:b5:97:a4:b4:88:58:9b:
         86:b2:4c:33:40:4f:58:17:dc:0c:1b:d7:6b:5d:de:77:4e:27:
         cc:52:5c:49:99:92:1d:6b:ca:63:16:16:92:7d:a7:70:fd:c1:
         1e:79:38:4a:fc:68:53:6c:c4:8f:53:f0:60:2f:12:e4:23:60:
         b4:b9:41:c8:f6:9f:2d:51:11:f2:98:0e:85:1b:d5:03:ef:f9:
         0b:da:b4:dc:08:f4:c0:3f:6c:29:11:56:b9:37:8e:11:2a:0b:
         75:02:c6:5a:e3:9b:3a:f9:69:3d:bc:b9:58:cd:cb:3a:ab:3a:
         26:da:50:b8:55:db:f0:a7:8e:6b:32:da:ba:65:b3:89:77:47:
         85:b8:14:5f
-----BEGIN CERTIFICATE-----
MIIEIjCCAwqgAwIBAgIEEAAA1jANBgkqhkiG9w0BAQsFADBEMQswCQYDVQQGEwJE
RTEPMA0GA1UECAwGSGVzc2VuMRQwEgYDVQQKDAtwcml2YWN5aWRlYTEOMAwGA1UE
AwwFQ0EwMDEwHhcNMTgwNDE2MTkyOTIxWhcNMTkwNDE2MTkyOTIxWjBQMQ8wDQYD
VQQLDAZyZWFsbTExEjAQBgNVBAMMCWNvcm5lbGl1czEpMCcGCSqGSIb3DQEJARYa
dXNlckBsb2NhbGhvc3QubG9jYWxkb21haW4wggEiMA0GCSqGSIb3DQEBAQUAA4IB
DwAwggEKAoIBAQDg3FRSrSTBOQUBAFMKxb1SQdQ6nxk6kg3PlSrgM0J38X82pnaf
2LB0dwbjBmYIZ9Dr+VVxEUNsxD4LAlT1wg467Jmq0G2W3aWJrDvaB/abiOCt0bgM
0x5onPocu/pZz0bXSxFx2m0JX50PWADk6bUSO05fWwU9CifHyGbeUEon6LB4Mvuo
xh4DLD4n9TzwtfoSZBZhYiRJW1Q0VeWZ/pKKfXoaTqZp+oMnbreag4AeR1IYyeFz
BHi1sWG4c9gQRCf0vY7MbnhFtQ7Lp+XNZYiTdAnrF77RGpjzkdrYvfxUPCt2x1zJ
y8n6txmUcpasadWjl0/zSr1MQ4tTqomoMS9lAgMBAAGjggEOMIIBCjALBgNVHQ8E
BAMCBaAwCQYDVR0TBAIwADARBglghkgBhvhCAQEEBAMCBkAwMwYJYIZIAYb4QgEN
BCYWJE9wZW5TU0wgR2VuZXJhdGVkIFNlcnZlciBDZXJ0aWZpY2F0ZTAdBgNVHQ4E
FgQUeGwJbconfdxdUNUU1ClL5NQ7UMEwdAYDVR0jBG0wa4AU9KfAzJFGr2TzkfIn
+Miyb4qHMnOhSKRGMEQxCzAJBgNVBAYTAkRFMQ8wDQYDVQQIDAZIZXNzZW4xFDAS
BgNVBAoMC3ByaXZhY3lpZGVhMQ4wDAYDVQQDDAVDQTAwMYIJAPvI66yDzRIHMBMG
A1UdJQQMMAoGCCsGAQUFBwMBMA0GCSqGSIb3DQEBCwUAA4IBAQBbTclwh8BCiTyC
nDXloUt8qfXPSOmHYVRhQ49sDC8xINMOWv3N5K8vFdOEvxhmbLDbevy3Yt3gpCzD
f6RLIC0t8uS1ARr6h5VfRx4yUK6h6lZvMH7iTESSfWIN6/xbPVPp67k7ZFJevqZN
8oCZcUBU8vqfcv/eSbWXpLSIWJuGskwzQE9YF9wMG9drXd53TifMUlxJmZIda8pj
FhaSfadw/cEeeThK/GhTbMSPU/BgLxLkI2C0uUHI9p8tURHymA6FG9UD7/kL2rTc
CPTAP2wpEVa5N44RKgt1AsZa45s6+Wk9vLlYzcs6qzom2lC4Vdvwp45rMtq6ZbOJ
d0eFuBRf
-----END CERTIFICATE-----
