Certificate:
    Data:
        Version: 3 (0x2)
        Serial Number: 268435679 (0x100000df)
    Signature Algorithm: sha256WithRSAEncryption
        Issuer: C=DE, ST=Hessen, O=privacyidea, CN=CA001
        Validity
            Not Before: Apr 12 09:42:05 2018 GMT
            Not After : Apr 12 09:42:05 2019 GMT
        Subject: CN=selfservice,CN=user,O=realm1/emailAddress=meine
        Subject Public Key Info:
            Public Key Algorithm: rsaEncryption
                Public-Key: (2048 bit)
                Modulus:
                    00:cf:3c:d4:33:0e:12:c4:e6:da:cd:b6:56:a1:1c:
                    26:bb:26:1c:8a:4a:73:a8:58:8a:b6:1e:b3:8b:99:
                    d2:1d:07:c2:92:89:79:c0:69:d8:c8:df:28:61:98:
                    1e:b3:fe:ae:2b:bd:78:a9:f7:6e:47:dc:a3:a0:16:
                    8c:85:02:c1:4e:92:fd:72:6e:f0:c8:03:29:9b:b8:
                    00:6e:c0:83:95:c8:34:20:36:9c:b3:e5:e4:e6:76:
                    73:a3:1a:ad:40:96:e0:53:54:00:ec:76:79:9a:c6:
                    0d:7e:b6:bd:29:ec:83:f3:cb:89:a4:cb:6c:00:ba:
                    0c:c5:78:0f:ff:69:b8:94:f4:04:70:43:3f:d8:9e:
                    d7:a7:fb:5d:ce:75:8e:da:e7:c4:07:b1:9d:de:6f:
                    88:4b:b6:4d:9a:cf:f9:bc:fa:9f:cd:32:6d:f6:3a:
                    0b:0d:23:42:78:ec:97:42:bf:0e:4d:60:56:e1:d3:
                    02:f2:19:cb:84:57:90:e5:70:a1:a2:83:35:86:e2:
                    da:86:9f:f9:8a:c4:79:b3:52:28:da:cb:bb:34:ca:
                    d3:da:91:4a:cf:8d:76:a2:b2:6b:9b:f9:96:fd:09:
                    2a:da:11:23:4d:f0:cb:d6:b2:b1:0e:12:6c:9a:19:
                    65:98:87:ca:e4:ee:24:ce:44:ac:90:8f:9d:1b:c5:
                    2a:9d
                Exponent: 65537 (0x10001)
        X509v3 extensions:
            X509v3 Key Usage: 
                Digital Signature, Key Encipherment
            X509v3 Basic Constraints: 
                CA:FALSE
            Netscape Cert Type: 
                SSL Server
            Netscape Comment: 
                OpenSSL Generated Server Certificate
            X509v3 Subject Key Identifier: 
                4D:07:90:AD:FF:1D:0D:E7:1A:DD:D6:2E:FA:BA:34:CB:AA:1F:24:C6
            X509v3 Authority Key Identifier: 
                keyid:F4:A7:C0:CC:91:46:AF:64:F3:91:F2:27:F8:C8:B2:6F:8A:87:32:73
                DirName:/C=DE/ST=Hessen/O=privacyidea/CN=CA001
                serial:FB:C8:EB:AC:83:CD:12:07

            X509v3 Extended Key Usage: 
                TLS Web Server Authentication
    Signature Algorithm: sha256WithRSAEncryption
         7f:8b:9b:25:7b:9a:6e:b8:df:cf:f7:fb:67:5a:ee:7c:a6:ad:
         1c:8b:df:92:b2:ae:88:89:8c:f1:91:b6:a8:b6:b6:7a:2a:65:
         73:35:04:84:9a:c7:bb:56:ad:ff:8f:87:c0:f1:2a:43:17:71:
         8a:93:3a:41:9b:8b:40:58:ef:18:91:87:68:3d:ab:04:3d:82:
         79:c0:e6:8f:c5:14:85:1c:08:eb:60:ec:8d:f1:71:95:d7:58:
         d3:7e:49:f4:5b:be:1a:7d:1d:83:bf:15:e6:d4:d2:96:88:e8:
         3e:c9:85:a1:47:d5:94:7c:92:17:36:f7:bc:bf:b7:39:c2:dd:
         c1:5f:15:5b:09:d7:43:6e:3f:b4:ec:e5:3f:4b:a3:49:b8:8f:
         5b:9d:1f:85:80:2a:97:8d:49:1f:26:16:b4:93:ad:90:71:4d:
         ed:4b:4e:83:30:7f:2d:5e:3e:8e:fc:54:31:11:d4:f1:54:20:
         46:62:bf:9d:f4:87:3f:e5:3e:7a:c5:b4:ec:66:0c:77:fb:51:
         3d:05:33:88:4a:e4:a3:0b:83:e9:52:8a:0e:91:58:5d:ae:cb:
         98:af:43:df:98:87:ef:6c:5f:5c:0b:3b:1a:29:51:b5:b3:ee:
         1e:d7:22:d0:18:2a:97:e8:9a:46:0e:d1:f5:c5:a3:80:56:05:
         5b:0a:47:40
-----BEGIN CERTIFICATE-----
MIIEDzCCAvegAwIBAgIEEAAA3zANBgkqhkiG9w0BAQsFADBEMQswCQYDVQQGEwJE
RTEPMA0GA1UECAwGSGVzc2VuMRQwEgYDVQQKDAtwcml2YWN5aWRlYTEOMAwGA1UE
AwwFQ0EwMDEwHhcNMTgwNDEyMDk0MjA1WhcNMTkwNDEyMDk0MjA1WjA9MSUwIwYD
VQQDDBxzZWxmc2VydmljZSxDTj11c2VyLE89cmVhbG0xMRQwEgYJKoZIhvcNAQkB
FgVtZWluZTCCASIwDQYJKoZIhvcNAQEBBQADggEPADCCAQoCggEBAM881DMOEsTm
2s22VqEcJrsmHIpKc6hYirYes4uZ0h0HwpKJecBp2MjfKGGYHrP+riu9eKn3bkfc
o6AWjIUCwU6S/XJu8MgDKZu4AG7Ag5XINCA2nLPl5OZ2c6MarUCW4FNUAOx2eZrG
DX62vSnsg/PLiaTLbAC6DMV4D/9puJT0BHBDP9ie16f7Xc51jtrnxAexnd5viEu2
TZrP+bz6n80ybfY6Cw0jQnjsl0K/Dk1gVuHTAvIZy4RXkOVwoaKDNYbi2oaf+YrE
ebNSKNrLuzTK09qRSs+NdqKya5v5lv0JKtoRI03wy9aysQ4SbJoZZZiHyuTuJM5E
rJCPnRvFKp0CAwEAAaOCAQ4wggEKMAsGA1UdDwQEAwIFoDAJBgNVHRMEAjAAMBEG
CWCGSAGG+EIBAQQEAwIGQDAzBglghkgBhvhCAQ0EJhYkT3BlblNTTCBHZW5lcmF0
ZWQgU2VydmVyIENlcnRpZmljYXRlMB0GA1UdDgQWBBRNB5Ct/x0N5xrd1i76ujTL
qh8kxjB0BgNVHSMEbTBrgBT0p8DMkUavZPOR8if4yLJviocyc6FIpEYwRDELMAkG
A1UEBhMCREUxDzANBgNVBAgMBkhlc3NlbjEUMBIGA1UECgwLcHJpdmFjeWlkZWEx
DjAMBgNVBAMMBUNBMDAxggkA+8jrrIPNEgcwEwYDVR0lBAwwCgYIKwYBBQUHAwEw
DQYJKoZIhvcNAQELBQADggEBAH+LmyV7mm6438/3+2da7nymrRyL35KyroiJjPGR
tqi2tnoqZXM1BISax7tWrf+Ph8DxKkMXcYqTOkGbi0BY7xiRh2g9qwQ9gnnA5o/F
FIUcCOtg7I3xcZXXWNN+SfRbvhp9HYO/FebU0paI6D7JhaFH1ZR8khc297y/tznC
3cFfFVsJ10NuP7Ts5T9Lo0m4j1udH4WAKpeNSR8mFrSTrZBxTe1LToMwfy1ePo78
VDER1PFUIEZiv530hz/lPnrFtOxmDHf7UT0FM4hK5KMLg+lSig6RWF2uy5ivQ9+Y
h+9sX1wLOxopUbWz7h7XItAYKpfomkYO0fXFo4BWBVsKR0A=
-----END CERTIFICATE-----
