Certificate:
    Data:
        Version: 3 (0x2)
        Serial Number: 268435674 (0x100000da)
    Signature Algorithm: sha256WithRSAEncryption
        Issuer: C=DE, ST=Hessen, O=privacyidea, CN=CA001
        Validity
            Not Before: Apr 12 09:30:09 2018 GMT
            Not After : Apr 12 09:30:09 2019 GMT
        Subject: C=DE, ST=Hessen, O=privacyidea, CN=usercert
        Subject Public Key Info:
            Public Key Algorithm: rsaEncryption
                Public-Key: (2048 bit)
                Modulus:
                    00:dc:2f:d1:5f:29:97:d4:7c:c3:53:c8:30:bd:4b:
                    67:70:2c:24:6b:b8:5e:eb:21:7a:48:12:56:7c:81:
                    5c:48:75:b6:68:eb:f6:f2:98:4e:50:51:d1:7f:6c:
                    73:f3:0a:a7:ae:be:48:5e:e5:d6:e1:d9:2a:7c:32:
                    6e:4e:fd:08:f6:5a:54:49:23:73:c3:b9:07:18:d1:
                    ef:b3:ac:f8:8a:dc:94:96:a4:90:3a:8e:74:df:e6:
                    0d:37:1b:bd:5b:b7:25:1a:56:39:da:6f:91:aa:5e:
                    1c:74:f3:f9:7c:14:01:83:12:65:76:c7:bb:fe:36:
                    5b:95:e9:72:65:83:ed:3e:98:30:71:fa:87:dd:a3:
                    36:5a:30:03:2e:26:e0:61:d1:bf:02:3f:b6:06:1f:
                    4a:89:28:1c:5c:a2:ff:4e:be:94:e6:8c:e0:da:82:
                    f1:9d:29:32:48:30:73:b4:04:f6:42:1e:be:f7:e2:
                    32:32:27:3c:9d:89:2f:70:3e:85:9a:6f:5c:c5:09:
                    c0:8c:32:2f:72:22:c9:d2:95:1f:b6:ac:72:60:72:
                    b7:82:4d:6b:ce:5b:e3:00:d0:d2:2f:58:c6:e0:10:
                    e5:51:ca:4d:3b:2e:e6:7e:ab:84:d6:56:f1:93:35:
                    a0:93:64:26:81:75:2f:91:b5:16:06:38:0b:db:cc:
                    2d:07
                Exponent: 65537 (0x10001)
        X509v3 extensions:
            X509v3 Key Usage: 
                Digital Signature, Key Encipherment
            X509v3 Basic Constraints: 
                CA:FALSE
            Netscape Cert Type: 
                SSL Server
            Netscape Comment: 
                OpenSSL Generated Server Certificate
            X509v3 Subject Key Identifier: 
                FC:14:D1:F0:4B:8D:00:90:F2:F5:B8:71:9E:4E:97:C3:92:54:AD:0B
            X509v3 Authority Key Identifier: 
                keyid:F4:A7:C0:CC:91:46:AF:64:F3:91:F2:27:F8:C8:B2:6F:8A:87:32:73
                DirName:/C=DE/ST=Hessen/O=privacyidea/CN=CA001
                serial:FB:C8:EB:AC:83:CD:12:07

            X509v3 Extended Key Usage: 
                TLS Web Server Authentication
    Signature Algorithm: sha256WithRSAEncryption
         68:2e:f4:a0:24:ca:27:a6:ea:0f:3c:3a:2b:36:73:d9:d3:cd:
         ea:5c:f2:a5:da:fa:dd:00:d1:19:b4:bd:d5:f6:b9:5a:b3:95:
         f7:45:bd:79:dd:58:cf:1e:f8:60:a5:e1:82:82:db:2b:0d:a6:
         f3:c1:4a:58:51:a2:8e:27:03:54:11:4b:d0:7b:ba:d5:da:39:
         64:e7:70:71:85:d9:3c:c1:7a:8f:23:cc:f4:29:07:77:4b:33:
         af:00:4e:cf:aa:21:96:9a:e1:7f:41:d8:60:b0:c3:5d:4f:20:
         db:96:e2:6a:c7:a5:d1:25:79:61:0f:14:82:b9:49:3f:20:d9:
         d9:00:25:af:f4:85:5f:8b:4e:d8:a6:64:64:f1:16:43:ed:f5:
         ab:f9:9b:7f:27:8d:5c:f6:8a:ba:4f:a9:14:94:43:37:de:c1:
         ce:85:64:99:71:24:d6:05:97:28:65:f5:10:fe:a2:ed:ee:0c:
         4c:b7:0e:2a:c6:99:0e:8e:6f:3e:70:b4:5f:cc:b8:ab:3e:61:
         1c:ae:db:59:72:c9:b5:6f:13:5b:fc:76:a3:d8:cc:a1:e5:7d:
         b2:c3:80:8c:d5:de:60:7c:28:e3:d6:09:a2:37:dd:f7:c9:e0:
         4b:bc:c1:09:c9:0a:32:52:af:05:00:42:69:bf:00:65:52:de:
         ce:e0:68:12
-----BEGIN CERTIFICATE-----
MIIEGTCCAwGgAwIBAgIEEAAA2jANBgkqhkiG9w0BAQsFADBEMQswCQYDVQQGEwJE
RTEPMA0GA1UECAwGSGVzc2VuMRQwEgYDVQQKDAtwcml2YWN5aWRlYTEOMAwGA1UE
AwwFQ0EwMDEwHhcNMTgwNDEyMDkzMDA5WhcNMTkwNDEyMDkzMDA5WjBHMQswCQYD
VQQGEwJERTEPMA0GA1UECAwGSGVzc2VuMRQwEgYDVQQKDAtwcml2YWN5aWRlYTER
MA8GA1UEAwwIdXNlcmNlcnQwggEiMA0GCSqGSIb3DQEBAQUAA4IBDwAwggEKAoIB
AQDcL9FfKZfUfMNTyDC9S2dwLCRruF7rIXpIElZ8gVxIdbZo6/bymE5QUdF/bHPz
Cqeuvkhe5dbh2Sp8Mm5O/Qj2WlRJI3PDuQcY0e+zrPiK3JSWpJA6jnTf5g03G71b
tyUaVjnab5GqXhx08/l8FAGDEmV2x7v+NluV6XJlg+0+mDBx+ofdozZaMAMuJuBh
0b8CP7YGH0qJKBxcov9OvpTmjODagvGdKTJIMHO0BPZCHr734jIyJzydiS9wPoWa
b1zFCcCMMi9yIsnSlR+2rHJgcreCTWvOW+MA0NIvWMbgEOVRyk07LuZ+q4TWVvGT
NaCTZCaBdS+RtRYGOAvbzC0HAgMBAAGjggEOMIIBCjALBgNVHQ8EBAMCBaAwCQYD
VR0TBAIwADARBglghkgBhvhCAQEEBAMCBkAwMwYJYIZIAYb4QgENBCYWJE9wZW5T
U0wgR2VuZXJhdGVkIFNlcnZlciBDZXJ0aWZpY2F0ZTAdBgNVHQ4EFgQU/BTR8EuN
AJDy9bhxnk6Xw5JUrQswdAYDVR0jBG0wa4AU9KfAzJFGr2TzkfIn+Miyb4qHMnOh
SKRGMEQxCzAJBgNVBAYTAkRFMQ8wDQYDVQQIDAZIZXNzZW4xFDASBgNVBAoMC3By
aXZhY3lpZGVhMQ4wDAYDVQQDDAVDQTAwMYIJAPvI66yDzRIHMBMGA1UdJQQMMAoG
CCsGAQUFBwMBMA0GCSqGSIb3DQEBCwUAA4IBAQBoLvSgJMonpuoPPDorNnPZ083q
XPKl2vrdANEZtL3V9rlas5X3Rb153VjPHvhgpeGCgtsrDabzwUpYUaKOJwNUEUvQ
e7rV2jlk53Bxhdk8wXqPI8z0KQd3SzOvAE7PqiGWmuF/QdhgsMNdTyDbluJqx6XR
JXlhDxSCuUk/INnZACWv9IVfi07YpmRk8RZD7fWr+Zt/J41c9oq6T6kUlEM33sHO
hWSZcSTWBZcoZfUQ/qLt7gxMtw4qxpkOjm8+cLRfzLirPmEcrttZcsm1bxNb/Haj
2Myh5X2yw4CM1d5gfCjj1gmiN933yeBLvMEJyQoyUq8FAEJpvwBlUt7O4GgS
-----END CERTIFICATE-----
