Certificate:
    Data:
        Version: 3 (0x2)
        Serial Number: 268435668 (0x100000d4)
    Signature Algorithm: sha256WithRSAEncryption
        Issuer: C=DE, ST=Hessen, O=privacyidea, CN=CA001
        Validity
            Not Before: Apr 16 19:25:12 2018 GMT
            Not After : May  5 19:25:12 2020 GMT
        Subject: CN=Steve Test/emailAddress=steve@openssl.org
        Subject Public Key Info:
            Public Key Algorithm: rsaEncryption
                Public-Key: (2048 bit)
                Modulus:
                    00:d2:81:89:20:51:48:0f:73:f4:11:32:24:d5:1f:
                    1c:fd:5c:f5:b6:e6:c5:f0:52:81:dc:d2:af:66:4a:
                    7c:93:31:61:5c:af:d1:6d:06:70:03:60:7c:72:0c:
                    88:dd:49:cd:9e:02:6c:d2:5a:d7:53:0f:f3:da:be:
                    69:64:b5:0f:0c:00:e3:b3:50:47:a3:b3:9b:ba:13:
                    50:d6:58:5a:4b:ab:39:e0:11:ca:0a:27:67:03:78:
                    22:66:6d:92:1e:1b:5c:49:ae:e6:6b:d1:8e:3b:9d:
                    06:d3:c6:ac:4d:53:43:10:ab:e8:96:c1:87:82:97:
                    99:8f:20:d3:99:12:37:31:84:e1:8a:ff:29:03:5f:
                    22:90:3e:7f:9b:e0:20:c1:ad:dc:ae:4c:39:1a:31:
                    96:17:02:8c:b2:d9:b4:0d:20:12:9b:7d:86:54:fd:
                    33:fd:c1:2a:62:46:f8:60:96:cf:6e:01:6f:22:df:
                    13:47:e7:97:ec:05:72:23:a3:62:f8:fa:ef:ac:9c:
                    72:f0:37:cb:2f:37:cf:90:a8:27:51:86:c6:d7:78:
                    08:8f:7e:25:a2:15:70:a2:fb:1c:b6:15:5e:a0:97:
                    8b:81:4c:09:28:8a:27:3b:94:bc:71:db:5b:71:37:
                    9a:2b:16:e0:6f:b5:c9:f5:4b:4f:20:ba:65:cf:af:
                    ad:ad
                Exponent: 65537 (0x10001)
        X509v3 extensions:
            X509v3 Key Usage: 
                Digital Signature, Key Encipherment
            X509v3 Basic Constraints: 
                CA:FALSE
            Netscape Cert Type: 
                SSL Server
            Netscape Comment: 
                OpenSSL Generated Server Certificate
            X509v3 Subject Key Identifier: 
                E5:25:6D:3E:AF:0D:DD:3F:4C:F2:45:19:39:D5:14:DB:7E:9C:C0:AD
            X509v3 Authority Key Identifier: 
                keyid:F4:A7:C0:CC:91:46:AF:64:F3:91:F2:27:F8:C8:B2:6F:8A:87:32:73
                DirName:/C=DE/ST=Hessen/O=privacyidea/CN=CA001
                serial:FB:C8:EB:AC:83:CD:12:07

            X509v3 Extended Key Usage: 
                TLS Web Server Authentication
    Signature Algorithm: sha256WithRSAEncryption
         19:02:29:dd:b6:d3:9c:d8:51:59:ef:e5:fa:09:c9:22:dd:50:
         c6:fb:03:2a:be:9c:e0:60:40:37:08:ca:ba:1b:7d:45:3b:c8:
         5f:c3:12:c1:4c:d5:f7:28:2e:15:06:93:92:2d:0c:67:c5:5f:
         0f:bc:a5:d3:ee:c7:29:13:31:86:ee:47:64:56:7f:2c:8a:c4:
         e7:73:a8:4d:bf:74:b4:d7:51:17:fe:57:cd:b1:c5:cb:82:0e:
         be:43:e2:9f:90:4b:c3:fa:55:e5:5d:c9:50:d4:5f:3a:bb:ab:
         31:27:e4:83:64:ac:1f:d2:01:b1:da:88:e3:c0:55:22:53:2a:
         a2:9b:ee:da:85:77:4d:05:0e:2e:85:30:5e:d0:40:55:97:e4:
         6b:fd:a4:4a:bf:23:93:59:e4:70:d8:78:a0:04:5f:8f:a4:73:
         4e:ae:10:f2:b8:cc:23:f2:b8:00:6e:b3:46:63:cb:a4:5a:d2:
         7f:0a:4a:10:d3:a9:60:e5:49:46:37:0a:5d:91:9e:ef:ee:19:
         c2:52:e9:cc:28:f6:f8:ab:b4:55:3c:36:a8:b6:07:c0:21:45:
         37:10:c1:3e:39:ba:dc:8b:c0:2a:0c:6b:f2:a3:38:6e:9d:b7:
         9e:d3:1c:ca:38:68:bd:55:15:03:7a:7c:e9:a4:07:32:81:b9:
         23:4b:7a:6d
-----BEGIN CERTIFICATE-----
MIIECTCCAvGgAwIBAgIEEAAA1DANBgkqhkiG9w0BAQsFADBEMQswCQYDVQQGEwJE
RTEPMA0GA1UECAwGSGVzc2VuMRQwEgYDVQQKDAtwcml2YWN5aWRlYTEOMAwGA1UE
AwwFQ0EwMDEwHhcNMTgwNDE2MTkyNTEyWhcNMjAwNTA1MTkyNTEyWjA3MRMwEQYD
VQQDDApTdGV2ZSBUZXN0MSAwHgYJKoZIhvcNAQkBFhFzdGV2ZUBvcGVuc3NsLm9y
ZzCCASIwDQYJKoZIhvcNAQEBBQADggEPADCCAQoCggEBANKBiSBRSA9z9BEyJNUf
HP1c9bbmxfBSgdzSr2ZKfJMxYVyv0W0GcANgfHIMiN1JzZ4CbNJa11MP89q+aWS1
DwwA47NQR6Ozm7oTUNZYWkurOeARygonZwN4ImZtkh4bXEmu5mvRjjudBtPGrE1T
QxCr6JbBh4KXmY8g05kSNzGE4Yr/KQNfIpA+f5vgIMGt3K5MORoxlhcCjLLZtA0g
Ept9hlT9M/3BKmJG+GCWz24BbyLfE0fnl+wFciOjYvj676yccvA3yy83z5CoJ1GG
xtd4CI9+JaIVcKL7HLYVXqCXi4FMCSiKJzuUvHHbW3E3misW4G+1yfVLTyC6Zc+v
ra0CAwEAAaOCAQ4wggEKMAsGA1UdDwQEAwIFoDAJBgNVHRMEAjAAMBEGCWCGSAGG
+EIBAQQEAwIGQDAzBglghkgBhvhCAQ0EJhYkT3BlblNTTCBHZW5lcmF0ZWQgU2Vy
dmVyIENlcnRpZmljYXRlMB0GA1UdDgQWBBTlJW0+rw3dP0zyRRk51RTbfpzArTB0
BgNVHSMEbTBrgBT0p8DMkUavZPOR8if4yLJviocyc6FIpEYwRDELMAkGA1UEBhMC
REUxDzANBgNVBAgMBkhlc3NlbjEUMBIGA1UECgwLcHJpdmFjeWlkZWExDjAMBgNV
BAMMBUNBMDAxggkA+8jrrIPNEgcwEwYDVR0lBAwwCgYIKwYBBQUHAwEwDQYJKoZI
hvcNAQELBQADggEBABkCKd2205zYUVnv5foJySLdUMb7Ayq+nOBgQDcIyrobfUU7
yF/DEsFM1fcoLhUGk5ItDGfFXw+8pdPuxykTMYbuR2RWfyyKxOdzqE2/dLTXURf+
V82xxcuCDr5D4p+QS8P6VeVdyVDUXzq7qzEn5INkrB/SAbHaiOPAVSJTKqKb7tqF
d00FDi6FMF7QQFWX5Gv9pEq/I5NZ5HDYeKAEX4+kc06uEPK4zCPyuABus0Zjy6Ra
0n8KShDTqWDlSUY3Cl2Rnu/uGcJS6cwo9virtFU8Nqi2B8AhRTcQwT45utyLwCoM
a/KjOG6dt57THMo4aL1VFQN6fOmkBzKBuSNLem0=
-----END CERTIFICATE-----
