Certificate:
    Data:
        Version: 3 (0x2)
        Serial Number: 268435678 (0x100000de)
    Signature Algorithm: sha256WithRSAEncryption
        Issuer: C=DE, ST=Hessen, O=privacyidea, CN=CA001
        Validity
            Not Before: Apr 12 09:34:01 2018 GMT
            Not After : Apr 12 09:34:01 2019 GMT
        Subject: OU=realm1, CN=cornelius/emailAddress=user@localhost.localdomain
        Subject Public Key Info:
            Public Key Algorithm: rsaEncryption
                Public-Key: (2048 bit)
                Modulus:
                    00:d6:6f:5d:de:d9:05:ed:84:0c:0d:4b:de:27:28:
                    6b:11:ef:9f:ed:7f:9a:7d:4c:41:52:7f:1f:3f:08:
                    ba:27:bc:fa:30:7f:78:66:76:64:71:a6:bb:87:de:
                    a5:22:60:56:d1:0c:30:df:a4:9c:9b:b0:ef:8d:f1:
                    c2:94:6a:0f:f7:9a:a4:c8:85:ca:97:f8:55:b6:d6:
                    55:5b:2d:2b:72:ea:6c:13:cd:d6:9f:a0:2a:bf:d3:
                    b7:44:1e:0f:fc:7e:06:43:c6:bb:5e:a8:00:f3:01:
                    27:3f:a5:cb:40:f4:4d:3d:8d:bf:ad:4a:08:a7:fc:
                    09:ca:f7:0c:42:a9:0d:c6:2f:db:26:6b:3c:75:8a:
                    b7:88:05:e3:47:df:01:4d:14:47:9d:d7:97:98:c0:
                    9a:cb:c1:a6:de:71:9b:20:b6:0d:48:89:08:6f:76:
                    15:5b:17:5e:8c:40:6e:5d:61:ae:82:65:c7:ba:be:
                    3d:bb:76:f0:29:ec:aa:c8:28:ba:85:78:7f:b6:cf:
                    79:f0:9f:91:69:0f:f8:e7:35:7d:c2:af:a2:62:e6:
                    1d:78:f9:56:c7:af:9f:85:4f:03:89:63:99:9a:f3:
                    93:2e:20:87:54:f5:08:87:e6:f9:18:b9:22:6f:ff:
                    25:80:3f:aa:5d:5c:08:fa:8d:03:4c:f2:77:83:73:
                    47:5b
                Exponent: 65537 (0x10001)
        X509v3 extensions:
            X509v3 Key Usage: 
                Digital Signature, Key Encipherment
            X509v3 Basic Constraints: 
                CA:FALSE
            Netscape Cert Type: 
                SSL Server
            Netscape Comment: 
                OpenSSL Generated Server Certificate
            X509v3 Subject Key Identifier: 
                07:4F:DC:40:51:67:2E:A9:7D:75:D0:73:0F:90:51:03:A7:B2:BB:0C
            X509v3 Authority Key Identifier: 
                keyid:F4:A7:C0:CC:91:46:AF:64:F3:91:F2:27:F8:C8:B2:6F:8A:87:32:73
                DirName:/C=DE/ST=Hessen/O=privacyidea/CN=CA001
                serial:FB:C8:EB:AC:83:CD:12:07

            X509v3 Extended Key Usage: 
                TLS Web Server Authentication
    Signature Algorithm: sha256WithRSAEncryption
         11:f4:e4:61:38:1b:61:6c:ee:0f:32:97:54:4b:05:de:d5:d2:
         4f:46:17:fa:2c:96:1e:8e:f3:6b:b8:ce:18:ec:e7:b7:3a:78:
         80:05:3f:dc:17:66:dd:44:19:a2:70:ff:30:75:4b:ee:02:a5:
         51:35:1e:42:fc:37:6b:6e:07:ed:f2:87:9c:29:ae:53:90:46:
         78:c9:c8:e5:f0:55:0f:78:40:40:4b:12:3c:8a:47:9b:98:af:
         dd:6f:54:0b:52:08:51:ca:bb:87:fe:d5:ba:1b:1b:4e:23:d9:
         b4:1b:dd:b8:db:f4:97:9c:08:cd:67:1f:43:11:23:30:af:1f:
         89:57:60:09:45:04:97:9c:fc:54:16:2a:25:25:78:bf:cf:37:
         d8:45:56:a9:1a:fb:95:f4:82:91:c8:83:6f:0f:e6:c3:29:f2:
         b0:fb:f3:12:e4:b7:46:a1:bb:a2:f2:0a:19:c3:d4:a9:50:45:
         0d:34:50:2c:8b:48:aa:1f:20:f8:4d:f3:61:66:66:ba:4b:81:
         6d:71:88:c4:b0:fa:62:86:6a:38:3b:51:49:12:05:2b:d4:a3:
         5a:d4:35:6c:41:db:b1:41:53:29:c8:d3:1d:98:0a:51:08:0f:
         90:55:74:ad:30:32:96:c7:70:be:37:25:6d:00:cc:f4:57:78:
         1e:58:2f:34
-----BEGIN CERTIFICATE-----
MIIEIjCCAwqgAwIBAgIEEAAA3jANBgkqhkiG9w0BAQsFADBEMQswCQYDVQQGEwJE
RTEPMA0GA1UECAwGSGVzc2VuMRQwEgYDVQQKDAtwcml2YWN5aWRlYTEOMAwGA1UE
AwwFQ0EwMDEwHhcNMTgwNDEyMDkzNDAxWhcNMTkwNDEyMDkzNDAxWjBQMQ8wDQYD
VQQLDAZyZWFsbTExEjAQBgNVBAMMCWNvcm5lbGl1czEpMCcGCSqGSIb3DQEJARYa
dXNlckBsb2NhbGhvc3QubG9jYWxkb21haW4wggEiMA0GCSqGSIb3DQEBAQUAA4IB
DwAwggEKAoIBAQDWb13e2QXthAwNS94nKGsR75/tf5p9TEFSfx8/CLonvPowf3hm
dmRxpruH3qUiYFbRDDDfpJybsO+N8cKUag/3mqTIhcqX+FW21lVbLSty6mwTzdaf
oCq/07dEHg/8fgZDxrteqADzASc/pctA9E09jb+tSgin/AnK9wxCqQ3GL9smazx1
ireIBeNH3wFNFEed15eYwJrLwabecZsgtg1IiQhvdhVbF16MQG5dYa6CZce6vj27
dvAp7KrIKLqFeH+2z3nwn5FpD/jnNX3Cr6Ji5h14+VbHr5+FTwOJY5ma85MuIIdU
9QiH5vkYuSJv/yWAP6pdXAj6jQNM8neDc0dbAgMBAAGjggEOMIIBCjALBgNVHQ8E
BAMCBaAwCQYDVR0TBAIwADARBglghkgBhvhCAQEEBAMCBkAwMwYJYIZIAYb4QgEN
BCYWJE9wZW5TU0wgR2VuZXJhdGVkIFNlcnZlciBDZXJ0aWZpY2F0ZTAdBgNVHQ4E
FgQUB0/cQFFnLql9ddBzD5BRA6eyuwwwdAYDVR0jBG0wa4AU9KfAzJFGr2TzkfIn
+Miyb4qHMnOhSKRGMEQxCzAJBgNVBAYTAkRFMQ8wDQYDVQQIDAZIZXNzZW4xFDAS
BgNVBAoMC3ByaXZhY3lpZGVhMQ4wDAYDVQQDDAVDQTAwMYIJAPvI66yDzRIHMBMG
A1UdJQQMMAoGCCsGAQUFBwMBMA0GCSqGSIb3DQEBCwUAA4IBAQAR9ORhOBthbO4P
MpdUSwXe1dJPRhf6LJYejvNruM4Y7Oe3OniABT/cF2bdRBmicP8wdUvuAqVRNR5C
/Ddrbgft8oecKa5TkEZ4ycjl8FUPeEBASxI8ikebmK/db1QLUghRyruH/tW6GxtO
I9m0G9242/SXnAjNZx9DESMwrx+JV2AJRQSXnPxUFiolJXi/zzfYRVapGvuV9IKR
yINvD+bDKfKw+/MS5LdGobui8goZw9SpUEUNNFAsi0iqHyD4TfNhZma6S4FtcYjE
sPpihmo4O1FJEgUr1KNa1DVsQduxQVMpyNMdmApRCA+QVXStMDKWx3C+NyVtAMz0
V3geWC80
-----END CERTIFICATE-----
