Certificate:
    Data:
        Version: 3 (0x2)
        Serial Number: 268435664 (0x100000d0)
    Signature Algorithm: sha256WithRSAEncryption
        Issuer: C=DE, ST=Hessen, O=privacyidea, CN=CA001
        Validity
            Not Before: Apr 16 19:22:51 2018 GMT
            Not After : Apr 16 19:22:51 2019 GMT
        Subject: C=DE, ST=Hessen, O=privacyidea, CN=requester.localdomain
        Subject Public Key Info:
            Public Key Algorithm: rsaEncryption
                Public-Key: (2048 bit)
                Modulus:
                    00:cd:be:14:4f:fa:ce:01:3f:42:22:1b:1d:9c:af:
                    dd:92:d2:7f:db:6c:b7:3e:39:43:43:6b:13:03:f1:
                    05:f4:07:74:bc:76:69:28:0b:af:19:8e:d7:fc:e3:
                    cd:c6:58:f2:ca:7f:08:6d:53:fc:07:02:44:24:c6:
                    b4:34:4c:8c:04:fe:33:0e:40:e2:20:ba:02:73:5a:
                    f7:f5:4f:63:6e:cc:c6:b6:df:54:1d:37:39:7d:51:
                    36:26:5f:bd:dc:3f:a8:8b:6b:a2:ae:b6:9d:d6:21:
                    e7:df:41:b8:7a:28:2a:68:48:ca:a8:2d:ed:e1:e9:
                    46:5e:5a:72:6d:b4:84:38:87:91:fd:94:11:0b:28:
                    84:c6:c2:2f:2a:fb:01:f9:36:7a:09:75:d1:33:88:
                    3c:73:41:5b:c8:bf:94:89:70:a1:f0:c0:b9:2e:50:
                    53:1e:b1:17:64:69:f4:2d:81:e0:a9:0d:0e:32:e9:
                    ba:55:8a:85:f1:1b:6f:49:79:b4:7f:88:c3:0d:3e:
                    54:88:9b:3d:1f:38:8c:04:f3:ee:6a:63:2b:f5:c6:
                    db:b4:83:aa:c4:78:41:3a:7d:4b:e1:c8:3e:71:ca:
                    1b:61:59:ea:c6:c4:ca:32:5e:c9:e9:bf:12:29:e6:
                    c6:c3:63:fe:a0:55:da:7a:f1:60:98:4d:26:ed:fa:
                    70:2d
                Exponent: 65537 (0x10001)
        X509v3 extensions:
            X509v3 Key Usage: 
                Digital Signature, Key Encipherment
            X509v3 Basic Constraints: 
                CA:FALSE
            Netscape Cert Type: 
                SSL Server
            Netscape Comment: 
                OpenSSL Generated Server Certificate
            X509v3 Subject Key Identifier: 
                53:3F:ED:5D:09:07:B3:65:7B:AB:45:C9:24:5B:09:77:80:0A:96:ED
            X509v3 Authority Key Identifier: 
                keyid:F4:A7:C0:CC:91:46:AF:64:F3:91:F2:27:F8:C8:B2:6F:8A:87:32:73
                DirName:/C=DE/ST=Hessen/O=privacyidea/CN=CA001
                serial:FB:C8:EB:AC:83:CD:12:07

            X509v3 Extended Key Usage: 
                TLS Web Server Authentication
    Signature Algorithm: sha256WithRSAEncryption
         80:20:4a:16:4f:7a:0d:68:0a:c3:e6:15:f6:48:bf:db:2d:33:
         27:e0:81:05:49:08:04:1f:9c:33:eb:bd:59:38:e4:80:49:c8:
         ad:00:1a:06:7c:08:4a:01:fc:1a:af:fa:9a:64:75:cd:22:79:
         01:8b:fc:67:12:44:54:18:a2:47:ab:15:be:1e:49:ba:3c:67:
         29:6a:85:25:f0:34:9b:ef:a4:3e:30:6e:c1:06:2e:83:d9:41:
         b6:28:56:60:30:b9:ce:92:db:6e:6d:21:76:0b:92:4e:71:f4:
         69:6d:3a:00:5a:ff:a3:c3:65:34:a9:27:b2:49:c3:a6:06:40:
         5c:0a:86:0b:8c:c7:be:57:68:50:d8:aa:d7:93:7a:f6:b2:3f:
         32:56:1a:69:ce:7f:a7:a3:bd:4b:1e:2e:eb:f5:bf:11:24:0c:
         76:f7:89:09:8c:e9:61:63:f9:dd:5d:cc:fe:6e:ec:5a:7c:c0:
         2f:29:56:a5:90:27:0a:99:e9:17:fb:44:0c:6f:47:6e:13:66:
         62:f5:38:ad:dc:93:6d:80:5a:6d:42:77:64:00:86:52:5a:36:
         18:3b:1a:03:68:91:b6:1c:c0:e5:59:3a:58:dd:74:c3:be:b1:
         4d:83:c7:87:7d:34:d3:9a:44:4e:0b:bd:87:03:c9:77:ca:03:
         9a:e0:1b:62
-----BEGIN CERTIFICATE-----
MIIEJjCCAw6gAwIBAgIEEAAA0DANBgkqhkiG9w0BAQsFADBEMQswCQYDVQQGEwJE
RTEPMA0GA1UECAwGSGVzc2VuMRQwEgYDVQQKDAtwcml2YWN5aWRlYTEOMAwGA1UE
AwwFQ0EwMDEwHhcNMTgwNDE2MTkyMjUxWhcNMTkwNDE2MTkyMjUxWjBUMQswCQYD
VQQGEwJERTEPMA0GA1UECAwGSGVzc2VuMRQwEgYDVQQKDAtwcml2YWN5aWRlYTEe
MBwGA1UEAwwVcmVxdWVzdGVyLmxvY2FsZG9tYWluMIIBIjANBgkqhkiG9w0BAQEF
AAOCAQ8AMIIBCgKCAQEAzb4UT/rOAT9CIhsdnK/dktJ/22y3PjlDQ2sTA/EF9Ad0
vHZpKAuvGY7X/OPNxljyyn8IbVP8BwJEJMa0NEyMBP4zDkDiILoCc1r39U9jbszG
tt9UHTc5fVE2Jl+93D+oi2uirrad1iHn30G4eigqaEjKqC3t4elGXlpybbSEOIeR
/ZQRCyiExsIvKvsB+TZ6CXXRM4g8c0FbyL+UiXCh8MC5LlBTHrEXZGn0LYHgqQ0O
Mum6VYqF8RtvSXm0f4jDDT5UiJs9HziMBPPuamMr9cbbtIOqxHhBOn1L4cg+ccob
YVnqxsTKMl7J6b8SKebGw2P+oFXaevFgmE0m7fpwLQIDAQABo4IBDjCCAQowCwYD
VR0PBAQDAgWgMAkGA1UdEwQCMAAwEQYJYIZIAYb4QgEBBAQDAgZAMDMGCWCGSAGG
+EIBDQQmFiRPcGVuU1NMIEdlbmVyYXRlZCBTZXJ2ZXIgQ2VydGlmaWNhdGUwHQYD
VR0OBBYEFFM/7V0JB7Nle6tFySRbCXeACpbtMHQGA1UdIwRtMGuAFPSnwMyRRq9k
85HyJ/jIsm+KhzJzoUikRjBEMQswCQYDVQQGEwJERTEPMA0GA1UECAwGSGVzc2Vu
MRQwEgYDVQQKDAtwcml2YWN5aWRlYTEOMAwGA1UEAwwFQ0EwMDGCCQD7yOusg80S
BzATBgNVHSUEDDAKBggrBgEFBQcDATANBgkqhkiG9w0BAQsFAAOCAQEAgCBKFk96
DWgKw+YV9ki/2y0zJ+CBBUkIBB+cM+u9WTjkgEnIrQAaBnwISgH8Gq/6mmR1zSJ5
AYv8ZxJEVBiiR6sVvh5JujxnKWqFJfA0m++kPjBuwQYug9lBtihWYDC5zpLbbm0h
dguSTnH0aW06AFr/o8NlNKknsknDpgZAXAqGC4zHvldoUNiq15N69rI/MlYaac5/
p6O9Sx4u6/W/ESQMdveJCYzpYWP53V3M/m7sWnzALylWpZAnCpnpF/tEDG9HbhNm
YvU4rdyTbYBabUJ3ZACGUlo2GDsaA2iRthzA5Vk6WN10w76xTYPHh30005pETgu9
hwPJd8oDmuAbYg==
-----END CERTIFICATE-----
